target datalayout = "e-m:e-p270:32:32-p271:32:32-p272:64:64-i64:64-i128:128-f80:128-n8:16:32:64-S128"
target triple = "x86_64-pc-linux-gnu"

%"class.llvm::StringRef" = type { ptr, i64 }
%"class.std::optional.50" = type { %"struct.std::_Optional_base.51" }
%"struct.std::_Optional_base.51" = type { %"struct.std::_Optional_payload.53" }
%"struct.std::_Optional_payload.53" = type { %"struct.std::_Optional_payload_base.base.55", [3 x i8] }
%"struct.std::_Optional_payload_base.base.55" = type <{ %"union.std::_Optional_payload_base<int>::_Storage", i8 }>
%"union.std::_Optional_payload_base<int>::_Storage" = type { i32 }
%"struct.std::_Optional_payload_base.54" = type <{ %"union.std::_Optional_payload_base<int>::_Storage", i8, [3 x i8] }>

@_ZL24LLVMLoopDisableNonforced = internal global ptr @.str.28, align 8
@.str.2 = private unnamed_addr constant [25 x i8] c"llvm.loop.unroll.disable\00", align 1
@.str.3 = private unnamed_addr constant [23 x i8] c"llvm.loop.unroll.count\00", align 1
@.str.4 = private unnamed_addr constant [24 x i8] c"llvm.loop.unroll.enable\00", align 1
@.str.5 = private unnamed_addr constant [22 x i8] c"llvm.loop.unroll.full\00", align 1

; Function Attrs: mustprogress nounwind uwtable
define linkonce_odr hidden noundef nonnull align 4 dereferenceable(4) ptr @_ZNSt22_Optional_payload_baseIiE6_M_getEv(ptr noundef nonnull align 4 dereferenceable(5) %0) #0 comdat align 2 {
  %2 = alloca ptr, align 8
  store ptr %0, ptr %2, align 8
  %3 = load ptr, ptr %2, align 8
  %4 = getelementptr inbounds nuw %"struct.std::_Optional_payload_base.54", ptr %3, i32 0, i32 0
  ret ptr %4
}

; Function Attrs: mustprogress nounwind uwtable
define linkonce_odr hidden noundef nonnull align 4 dereferenceable(4) ptr @_ZNSt19_Optional_base_implIiSt14_Optional_baseIiLb1ELb1EEE6_M_getEv(ptr noundef nonnull align 1 dereferenceable(1) %0) #0 comdat align 2 {
  %2 = alloca ptr, align 8
  store ptr %0, ptr %2, align 8
  %3 = load ptr, ptr %2, align 8
  br label %4

4:                                                ; preds = %1
  br label %5

5:                                                ; preds = %4
  %6 = getelementptr inbounds nuw %"struct.std::_Optional_base.51", ptr %3, i32 0, i32 0
  %7 = call noundef nonnull align 4 dereferenceable(4) ptr @_ZNSt22_Optional_payload_baseIiE6_M_getEv(ptr noundef nonnull align 4 dereferenceable(5) %6) #12
  ret ptr %7
}

; Function Attrs: mustprogress nounwind uwtable
define linkonce_odr hidden noundef zeroext i1 @_ZNKSt19_Optional_base_implIiSt14_Optional_baseIiLb1ELb1EEE13_M_is_engagedEv(ptr noundef nonnull align 1 dereferenceable(1) %0) #0 comdat align 2 {
  %2 = alloca ptr, align 8
  store ptr %0, ptr %2, align 8
  %3 = load ptr, ptr %2, align 8
  %4 = getelementptr inbounds nuw %"struct.std::_Optional_base.51", ptr %3, i32 0, i32 0
  %5 = getelementptr inbounds nuw %"struct.std::_Optional_payload_base.54", ptr %4, i32 0, i32 1
  %6 = load i8, ptr %5, align 4
  %7 = trunc i8 %6 to i1
  ret i1 %7
}

; Function Attrs: mustprogress nounwind uwtable
define linkonce_odr hidden noundef i64 @_ZNSt11char_traitsIcE6lengthEPKc(ptr noundef %0) #0 comdat align 2 {
  %2 = alloca ptr, align 8
  store ptr %0, ptr %2, align 8
  %3 = load ptr, ptr %2, align 8
  %4 = call i64 @strlen(ptr noundef %3) #12
  ret i64 %4
}

; Function Attrs: mustprogress nounwind uwtable
define dso_local noundef zeroext i1 @_ZN4llvm27hasDisableAllTransformsHintEPKNS_4LoopE(ptr noundef %0) #0 {
  %2 = alloca ptr, align 8
  %3 = alloca %"class.llvm::StringRef", align 8
  store ptr %0, ptr %2, align 8
  %4 = load ptr, ptr %2, align 8
  %5 = load ptr, ptr @_ZL24LLVMLoopDisableNonforced, align 8
  call void @_ZN4llvm9StringRefC2EPKc(ptr noundef nonnull align 8 dereferenceable(16) %3, ptr noundef %5)
  %6 = getelementptr inbounds nuw { ptr, i64 }, ptr %3, i32 0, i32 0
  %7 = load ptr, ptr %6, align 8
  %8 = getelementptr inbounds nuw { ptr, i64 }, ptr %3, i32 0, i32 1
  %9 = load i64, ptr %8, align 8
  %10 = call noundef zeroext i1 @_ZN4llvm23getBooleanLoopAttributeEPKNS_4LoopENS_9StringRefE(ptr noundef %4, ptr %7, i64 %9)
  ret i1 %10
}

; Function Attrs: mustprogress nounwind uwtable
define linkonce_odr hidden noundef nonnull align 4 dereferenceable(4) ptr @_ZNRSt8optionalIiEdeEv(ptr noundef nonnull align 4 dereferenceable(8) %0) #0 comdat align 2 {
  %2 = alloca ptr, align 8
  store ptr %0, ptr %2, align 8
  %3 = load ptr, ptr %2, align 8
  %4 = call noundef nonnull align 4 dereferenceable(4) ptr @_ZNSt19_Optional_base_implIiSt14_Optional_baseIiLb1ELb1EEE6_M_getEv(ptr noundef nonnull align 1 dereferenceable(1) %3) #12
  ret ptr %4
}

; Function Attrs: mustprogress nounwind uwtable
define linkonce_odr hidden noundef zeroext i1 @_ZNKSt8optionalIiEcvbEv(ptr noundef nonnull align 4 dereferenceable(8) %0) #0 comdat align 2 {
  %2 = alloca ptr, align 8
  store ptr %0, ptr %2, align 8
  %3 = load ptr, ptr %2, align 8
  %4 = call noundef zeroext i1 @_ZNKSt19_Optional_base_implIiSt14_Optional_baseIiLb1ELb1EEE13_M_is_engagedEv(ptr noundef nonnull align 1 dereferenceable(1) %3) #12
  ret i1 %4
}

; Function Attrs: mustprogress nounwind uwtable
define linkonce_odr hidden void @_ZN4llvm9StringRefC2EPKc(ptr noundef nonnull align 8 dereferenceable(16) %0, ptr noundef %1) unnamed_addr #0 comdat align 2 {
  %3 = alloca ptr, align 8
  %4 = alloca ptr, align 8
  store ptr %0, ptr %3, align 8
  store ptr %1, ptr %4, align 8
  %5 = load ptr, ptr %3, align 8
  %6 = getelementptr inbounds nuw %"class.llvm::StringRef", ptr %5, i32 0, i32 0
  %7 = load ptr, ptr %4, align 8
  store ptr %7, ptr %6, align 8
  %8 = getelementptr inbounds nuw %"class.llvm::StringRef", ptr %5, i32 0, i32 1
  %9 = load ptr, ptr %4, align 8
  %10 = icmp ne ptr %9, null
  br i1 %10, label %11, label %14

11:                                               ; preds = %2
  %12 = load ptr, ptr %4, align 8
  %13 = call noundef i64 @_ZNSt11char_traitsIcE6lengthEPKc(ptr noundef %12)
  br label %15

14:                                               ; preds = %2
  br label %15

15:                                               ; preds = %14, %11
  %16 = phi i64 [ %13, %11 ], [ 0, %14 ]
  store i64 %16, ptr %8, align 8
  ret void
}

; Function Attrs: mustprogress nounwind uwtable
define dso_local noundef i32 @_ZN4llvm23hasUnrollTransformationEPKNS_4LoopE(ptr noundef %0) #0 {
  %2 = alloca i32, align 4
  %3 = alloca ptr, align 8
  %4 = alloca %"class.llvm::StringRef", align 8
  %5 = alloca %"class.std::optional.50", align 4
  %6 = alloca %"class.llvm::StringRef", align 8
  %7 = alloca %"class.llvm::StringRef", align 8
  %8 = alloca %"class.llvm::StringRef", align 8
  store ptr %0, ptr %3, align 8
  %9 = load ptr, ptr %3, align 8
  call void @_ZN4llvm9StringRefC2EPKc(ptr noundef nonnull align 8 dereferenceable(16) %4, ptr noundef @.str.2)
  %10 = getelementptr inbounds nuw { ptr, i64 }, ptr %4, i32 0, i32 0
  %11 = load ptr, ptr %10, align 8
  %12 = getelementptr inbounds nuw { ptr, i64 }, ptr %4, i32 0, i32 1
  %13 = load i64, ptr %12, align 8
  %14 = call noundef zeroext i1 @_ZN4llvm23getBooleanLoopAttributeEPKNS_4LoopENS_9StringRefE(ptr noundef %9, ptr %11, i64 %13)
  br i1 %14, label %15, label %16

15:                                               ; preds = %1
  store i32 6, ptr %2, align 4
  br label %52

16:                                               ; preds = %1
  %17 = load ptr, ptr %3, align 8
  call void @_ZN4llvm9StringRefC2EPKc(ptr noundef nonnull align 8 dereferenceable(16) %6, ptr noundef @.str.3)
  %18 = getelementptr inbounds nuw { ptr, i64 }, ptr %6, i32 0, i32 0
  %19 = load ptr, ptr %18, align 8
  %20 = getelementptr inbounds nuw { ptr, i64 }, ptr %6, i32 0, i32 1
  %21 = load i64, ptr %20, align 8
  %22 = call i64 @_ZN4llvm27getOptionalIntLoopAttributeEPKNS_4LoopENS_9StringRefE(ptr noundef %17, ptr %19, i64 %21)
  %23 = getelementptr inbounds nuw %"class.std::optional.50", ptr %5, i32 0, i32 0
  %24 = getelementptr inbounds nuw %"struct.std::_Optional_base.51", ptr %23, i32 0, i32 0
  store i64 %22, ptr %24, align 4
  %25 = call noundef zeroext i1 @_ZNKSt8optionalIiEcvbEv(ptr noundef nonnull align 4 dereferenceable(8) %5) #12
  br i1 %25, label %26, label %31

26:                                               ; preds = %16
  %27 = call noundef nonnull align 4 dereferenceable(4) ptr @_ZNRSt8optionalIiEdeEv(ptr noundef nonnull align 4 dereferenceable(8) %5) #12
  %28 = load i32, ptr %27, align 4
  %29 = icmp eq i32 %28, 1
  %30 = select i1 %29, i32 6, i32 5
  store i32 %30, ptr %2, align 4
  br label %52

31:                                               ; preds = %16
  %32 = load ptr, ptr %3, align 8
  call void @_ZN4llvm9StringRefC2EPKc(ptr noundef nonnull align 8 dereferenceable(16) %7, ptr noundef @.str.4)
  %33 = getelementptr inbounds nuw { ptr, i64 }, ptr %7, i32 0, i32 0
  %34 = load ptr, ptr %33, align 8
  %35 = getelementptr inbounds nuw { ptr, i64 }, ptr %7, i32 0, i32 1
  %36 = load i64, ptr %35, align 8
  %37 = call noundef zeroext i1 @_ZN4llvm23getBooleanLoopAttributeEPKNS_4LoopENS_9StringRefE(ptr noundef %32, ptr %34, i64 %36)
  br i1 %37, label %38, label %39

38:                                               ; preds = %31
  store i32 5, ptr %2, align 4
  br label %52

39:                                               ; preds = %31
  %40 = load ptr, ptr %3, align 8
  call void @_ZN4llvm9StringRefC2EPKc(ptr noundef nonnull align 8 dereferenceable(16) %8, ptr noundef @.str.5)
  %41 = getelementptr inbounds nuw { ptr, i64 }, ptr %8, i32 0, i32 0
  %42 = load ptr, ptr %41, align 8
  %43 = getelementptr inbounds nuw { ptr, i64 }, ptr %8, i32 0, i32 1
  %44 = load i64, ptr %43, align 8
  %45 = call noundef zeroext i1 @_ZN4llvm23getBooleanLoopAttributeEPKNS_4LoopENS_9StringRefE(ptr noundef %40, ptr %42, i64 %44)
  br i1 %45, label %46, label %47

46:                                               ; preds = %39
  store i32 5, ptr %2, align 4
  br label %52

47:                                               ; preds = %39
  %48 = load ptr, ptr %3, align 8
  %49 = call noundef zeroext i1 @_ZN4llvm27hasDisableAllTransformsHintEPKNS_4LoopE(ptr noundef %48)
  br i1 %49, label %50, label %51

50:                                               ; preds = %47
  store i32 2, ptr %2, align 4
  br label %52

51:                                               ; preds = %47
  store i32 0, ptr %2, align 4
  br label %52

52:                                               ; preds = %51, %50, %46, %38, %26, %15
  %53 = load i32, ptr %2, align 4
  ret i32 %53
}